; ModuleID = '31/1523.c'
source_filename = "31/1523.c"
target datalayout = "e-m:e-p270:32:32-p271:32:32-p272:64:64-i64:64-f80:128-n8:16:32:64-S128"
target triple = "x86_64-pc-linux-gnu"

%struct.Student = type { [1000 x i8], [1000 x i8], i8, i32, [1000 x i8], [1000 x i8], %struct.Student*, %struct.Student* }

@n = common dso_local global i32 0, align 4
@.str = private unnamed_addr constant [3 x i8] c"%s\00", align 1
@.str.1 = private unnamed_addr constant [15 x i8] c"%s %c %d %s %s\00", align 1
@.str.2 = private unnamed_addr constant [18 x i8] c"%s %s %c %d %s %s\00", align 1

; Function Attrs: noinline nounwind uwtable
define dso_local %struct.Student* @creat() #0 {
  %1 = alloca %struct.Student*, align 8
  %2 = alloca %struct.Student*, align 8
  %3 = alloca %struct.Student*, align 8
  %4 = alloca %struct.Student*, align 8
  store i32 0, i32* @n, align 4
  %5 = call noalias i8* @malloc(i64 100) #3
  %6 = bitcast i8* %5 to %struct.Student*
  store %struct.Student* %6, %struct.Student** %4, align 8
  store %struct.Student* %6, %struct.Student** %3, align 8
  %7 = load %struct.Student*, %struct.Student** %3, align 8
  %8 = getelementptr inbounds %struct.Student, %struct.Student* %7, i32 0, i32 0
  %9 = getelementptr inbounds [1000 x i8], [1000 x i8]* %8, i64 0, i64 0
  %10 = call i32 (i8*, ...) @__isoc99_scanf(i8* getelementptr inbounds ([3 x i8], [3 x i8]* @.str, i64 0, i64 0), i8* %9)
  store %struct.Student* null, %struct.Student** %1, align 8
  br label %11

11:                                               ; preds = %48, %0
  %12 = load %struct.Student*, %struct.Student** %3, align 8
  %13 = getelementptr inbounds %struct.Student, %struct.Student* %12, i32 0, i32 0
  %14 = getelementptr inbounds [1000 x i8], [1000 x i8]* %13, i64 0, i64 0
  %15 = load i8, i8* %14, align 8
  %16 = sext i8 %15 to i32
  %17 = icmp ne i32 %16, 101
  br i1 %17, label %18, label %56

18:                                               ; preds = %11
  %19 = load %struct.Student*, %struct.Student** %3, align 8
  %20 = getelementptr inbounds %struct.Student, %struct.Student* %19, i32 0, i32 1
  %21 = getelementptr inbounds [1000 x i8], [1000 x i8]* %20, i64 0, i64 0
  %22 = load %struct.Student*, %struct.Student** %3, align 8
  %23 = getelementptr inbounds %struct.Student, %struct.Student* %22, i32 0, i32 2
  %24 = load %struct.Student*, %struct.Student** %3, align 8
  %25 = getelementptr inbounds %struct.Student, %struct.Student* %24, i32 0, i32 3
  %26 = load %struct.Student*, %struct.Student** %3, align 8
  %27 = getelementptr inbounds %struct.Student, %struct.Student* %26, i32 0, i32 4
  %28 = getelementptr inbounds [1000 x i8], [1000 x i8]* %27, i64 0, i64 0
  %29 = load %struct.Student*, %struct.Student** %3, align 8
  %30 = getelementptr inbounds %struct.Student, %struct.Student* %29, i32 0, i32 5
  %31 = getelementptr inbounds [1000 x i8], [1000 x i8]* %30, i64 0, i64 0
  %32 = call i32 (i8*, ...) @__isoc99_scanf(i8* getelementptr inbounds ([15 x i8], [15 x i8]* @.str.1, i64 0, i64 0), i8* %21, i8* %23, i32* %25, i8* %28, i8* %31)
  %33 = load i32, i32* @n, align 4
  %34 = add nsw i32 %33, 1
  store i32 %34, i32* @n, align 4
  %35 = load i32, i32* @n, align 4
  %36 = icmp eq i32 %35, 1
  br i1 %36, label %37, label %41

37:                                               ; preds = %18
  %38 = load %struct.Student*, %struct.Student** %3, align 8
  store %struct.Student* %38, %struct.Student** %1, align 8
  %39 = load %struct.Student*, %struct.Student** %3, align 8
  %40 = getelementptr inbounds %struct.Student, %struct.Student* %39, i32 0, i32 7
  store %struct.Student* null, %struct.Student** %40, align 8
  br label %48

41:                                               ; preds = %18
  %42 = load %struct.Student*, %struct.Student** %3, align 8
  %43 = load %struct.Student*, %struct.Student** %4, align 8
  %44 = getelementptr inbounds %struct.Student, %struct.Student* %43, i32 0, i32 6
  store %struct.Student* %42, %struct.Student** %44, align 8
  %45 = load %struct.Student*, %struct.Student** %4, align 8
  %46 = load %struct.Student*, %struct.Student** %3, align 8
  %47 = getelementptr inbounds %struct.Student, %struct.Student* %46, i32 0, i32 7
  store %struct.Student* %45, %struct.Student** %47, align 8
  br label %48

48:                                               ; preds = %41, %37
  %49 = load %struct.Student*, %struct.Student** %3, align 8
  store %struct.Student* %49, %struct.Student** %4, align 8
  %50 = call noalias i8* @malloc(i64 100) #3
  %51 = bitcast i8* %50 to %struct.Student*
  store %struct.Student* %51, %struct.Student** %3, align 8
  %52 = load %struct.Student*, %struct.Student** %3, align 8
  %53 = getelementptr inbounds %struct.Student, %struct.Student* %52, i32 0, i32 0
  %54 = getelementptr inbounds [1000 x i8], [1000 x i8]* %53, i64 0, i64 0
  %55 = call i32 (i8*, ...) @__isoc99_scanf(i8* getelementptr inbounds ([3 x i8], [3 x i8]* @.str, i64 0, i64 0), i8* %54)
  br label %11

56:                                               ; preds = %11
  %57 = load %struct.Student*, %struct.Student** %4, align 8
  %58 = getelementptr inbounds %struct.Student, %struct.Student* %57, i32 0, i32 6
  store %struct.Student* null, %struct.Student** %58, align 8
  %59 = load %struct.Student*, %struct.Student** %4, align 8
  store %struct.Student* %59, %struct.Student** %2, align 8
  %60 = load %struct.Student*, %struct.Student** %2, align 8
  ret %struct.Student* %60
}

; Function Attrs: nounwind
declare dso_local noalias i8* @malloc(i64) #1

declare dso_local i32 @__isoc99_scanf(i8*, ...) #2

; Function Attrs: noinline nounwind uwtable
define dso_local void @print(%struct.Student* %0) #0 {
  %2 = alloca %struct.Student*, align 8
  %3 = alloca %struct.Student*, align 8
  store %struct.Student* %0, %struct.Student** %2, align 8
  %4 = load %struct.Student*, %struct.Student** %2, align 8
  store %struct.Student* %4, %struct.Student** %3, align 8
  %5 = load %struct.Student*, %struct.Student** %2, align 8
  %6 = icmp ne %struct.Student* %5, null
  br i1 %6, label %7, label %37

7:                                                ; preds = %1
  br label %8

8:                                                ; preds = %33, %7
  %9 = load %struct.Student*, %struct.Student** %3, align 8
  %10 = getelementptr inbounds %struct.Student, %struct.Student* %9, i32 0, i32 0
  %11 = getelementptr inbounds [1000 x i8], [1000 x i8]* %10, i64 0, i64 0
  %12 = load %struct.Student*, %struct.Student** %3, align 8
  %13 = getelementptr inbounds %struct.Student, %struct.Student* %12, i32 0, i32 1
  %14 = getelementptr inbounds [1000 x i8], [1000 x i8]* %13, i64 0, i64 0
  %15 = load %struct.Student*, %struct.Student** %3, align 8
  %16 = getelementptr inbounds %struct.Student, %struct.Student* %15, i32 0, i32 2
  %17 = load i8, i8* %16, align 8
  %18 = sext i8 %17 to i32
  %19 = load %struct.Student*, %struct.Student** %3, align 8
  %20 = getelementptr inbounds %struct.Student, %struct.Student* %19, i32 0, i32 3
  %21 = load i32, i32* %20, align 4
  %22 = load %struct.Student*, %struct.Student** %3, align 8
  %23 = getelementptr inbounds %struct.Student, %struct.Student* %22, i32 0, i32 4
  %24 = getelementptr inbounds [1000 x i8], [1000 x i8]* %23, i64 0, i64 0
  %25 = load %struct.Student*, %struct.Student** %3, align 8
  %26 = getelementptr inbounds %struct.Student, %struct.Student* %25, i32 0, i32 5
  %27 = getelementptr inbounds [1000 x i8], [1000 x i8]* %26, i64 0, i64 0
  %28 = call i32 (i8*, ...) @printf(i8* getelementptr inbounds ([18 x i8], [18 x i8]* @.str.2, i64 0, i64 0), i8* %11, i8* %14, i32 %18, i32 %21, i8* %24, i8* %27)
  %29 = call i32 @putchar(i32 10)
  %30 = load %struct.Student*, %struct.Student** %3, align 8
  %31 = getelementptr inbounds %struct.Student, %struct.Student* %30, i32 0, i32 7
  %32 = load %struct.Student*, %struct.Student** %31, align 8
  store %struct.Student* %32, %struct.Student** %3, align 8
  br label %33

33:                                               ; preds = %8
  %34 = load %struct.Student*, %struct.Student** %3, align 8
  %35 = icmp ne %struct.Student* %34, null
  br i1 %35, label %8, label %36

36:                                               ; preds = %33
  br label %37

37:                                               ; preds = %36, %1
  ret void
}

declare dso_local i32 @printf(i8*, ...) #2

declare dso_local i32 @putchar(i32) #2

; Function Attrs: noinline nounwind uwtable
define dso_local i32 @main() #0 {
  %1 = alloca i32, align 4
  %2 = alloca %struct.Student*, align 8
  store i32 0, i32* %1, align 4
  %3 = call %struct.Student* @creat()
  store %struct.Student* %3, %struct.Student** %2, align 8
  %4 = load %struct.Student*, %struct.Student** %2, align 8
  call void @print(%struct.Student* %4)
  ret i32 0
}


!llvm.module.flags = !{!0}
!llvm.ident = !{!1}

!0 = !{i32 1, !"wchar_size", i32 4}
!1 = !{!"clang version 10.0.0-4ubuntu1 "}
